target datalayout = "e-m:e-p270:32:32-p271:32:32-p272:64:64-i64:64-i128:128-f80:128-n8:16:32:64-S128"
target triple = "x86_64-pc-linux-gnu"

%struct.tMPI_Atomic = type { i32, [60 x i8] }
%struct.tMPI_Event_t = type { %struct.tMPI_Atomic, i32 }
%struct.coll_sync = type { i32, i32, ptr, i32 }

; Function Attrs: mustprogress uwtable
define void @_Z22tMPI_Coll_sync_destroyP9coll_sync(ptr noundef %0) #0 {
  %2 = alloca ptr, align 8
  %3 = alloca i32, align 4
  store ptr %0, ptr %2, align 8, !tbaa !33
  call void @llvm.lifetime.start.p0(i64 4, ptr %3) #7
  %4 = load ptr, ptr %2, align 8, !tbaa !33
  %5 = getelementptr inbounds nuw %struct.coll_sync, ptr %4, i32 0, i32 0
  store i32 0, ptr %5, align 8, !tbaa !35
  %6 = load ptr, ptr %2, align 8, !tbaa !33
  %7 = getelementptr inbounds nuw %struct.coll_sync, ptr %6, i32 0, i32 1
  store i32 0, ptr %7, align 4, !tbaa !38
  store i32 0, ptr %3, align 4, !tbaa !8
  br label %8

8:                                                ; preds = %21, %1
  %9 = load i32, ptr %3, align 4, !tbaa !8
  %10 = load ptr, ptr %2, align 8, !tbaa !33
  %11 = getelementptr inbounds nuw %struct.coll_sync, ptr %10, i32 0, i32 3
  %12 = load i32, ptr %11, align 8, !tbaa !39
  %13 = icmp slt i32 %9, %12
  br i1 %13, label %14, label %24

14:                                               ; preds = %8
  %15 = load ptr, ptr %2, align 8, !tbaa !33
  %16 = getelementptr inbounds nuw %struct.coll_sync, ptr %15, i32 0, i32 2
  %17 = load ptr, ptr %16, align 8, !tbaa !40
  %18 = load i32, ptr %3, align 4, !tbaa !8
  %19 = sext i32 %18 to i64
  %20 = getelementptr inbounds %struct.tMPI_Event_t, ptr %17, i64 %19
  call void @_Z18tMPI_Event_destroyP12tMPI_Event_t(ptr noundef %20)
  br label %21

21:                                               ; preds = %14
  %22 = load i32, ptr %3, align 4, !tbaa !8
  %23 = add nsw i32 %22, 1
  store i32 %23, ptr %3, align 4, !tbaa !8
  br label %8, !llvm.loop !42

24:                                               ; preds = %8
  %25 = load ptr, ptr %2, align 8, !tbaa !33
  %26 = getelementptr inbounds nuw %struct.coll_sync, ptr %25, i32 0, i32 2
  %27 = load ptr, ptr %26, align 8, !tbaa !40
  call void @free(ptr noundef %27) #7
  call void @llvm.lifetime.end.p0(i64 4, ptr %3) #7
  ret void
}