; Function Attrs: mustprogress uwtable
define void @_Z22tMPI_Coll_sync_destroyP9coll_sync(ptr noundef captures(none) initializes((0, 8)) %0) local_unnamed_addr #0 {
  store i32 0, ptr %0, align 8, !tbaa !29
  %2 = getelementptr inbounds nuw i8, ptr %0, i64 4
  store i32 0, ptr %2, align 4, !tbaa !32
  %3 = getelementptr inbounds nuw i8, ptr %0, i64 16
  %4 = load i32, ptr %3, align 8, !tbaa !33
  %5 = icmp sgt i32 %4, 0
  br i1 %5, label %.lr.ph, label %._crit_edge

.lr.ph:                                           ; preds = %1
  %6 = getelementptr inbounds nuw i8, ptr %0, i64 8
  br label %7

7:                                                ; preds = %.lr.ph, %7
  %indvars.iv = phi i64 [ 0, %.lr.ph ], [ %indvars.iv.next, %7 ]
  %8 = load ptr, ptr %6, align 8, !tbaa !34
  %9 = getelementptr inbounds nuw %struct.tMPI_Event_t, ptr %8, i64 %indvars.iv
  tail call void @_Z18tMPI_Event_destroyP12tMPI_Event_t(ptr noundef %9)
  %indvars.iv.next = add nuw nsw i64 %indvars.iv, 1
  %10 = load i32, ptr %3, align 8, !tbaa !33
  %11 = sext i32 %10 to i64
  %12 = icmp slt i64 %indvars.iv.next, %11
  br i1 %12, label %7, label %._crit_edge, !llvm.loop !36

._crit_edge:                                      ; preds = %7, %1
  %13 = getelementptr inbounds nuw i8, ptr %0, i64 8
  %14 = load ptr, ptr %13, align 8, !tbaa !34
  tail call void @free(ptr noundef %14) #8
  ret void
}